; Function Attrs: mustprogress uwtable
define internal fastcc void @_ZN7testing8internal26CartesianProductGenerator2IiN11opencv_test12_GLOBAL__N_17pnpAlgoEEC2ERKNS0_14ParamGeneratorIiEERKNS6_IS4_EE(ptr noundef nonnull align 8 dereferenceable(40) %0, ptr noundef nonnull align 8 dereferenceable(16) %1, ptr noundef nonnull align 8 dereferenceable(16) %2) unnamed_addr #3 align 2 personality ptr @__gxx_personality_v0 {
  store ptr getelementptr inbounds inrange(-16, 32) (i8, ptr @_ZTVN7testing8internal26CartesianProductGenerator2IiN11opencv_test12_GLOBAL__N_17pnpAlgoEEE, i64 16), ptr %0, align 8
  %4 = getelementptr inbounds i8, ptr %0, i64 8
  %5 = load ptr, ptr %1, align 8
  store ptr %5, ptr %4, align 8
  %.not.i.i.i = icmp eq ptr %5, null
  br i1 %.not.i.i.i, label %14, label %6

6:                                                ; preds = %3
  %7 = getelementptr inbounds i8, ptr %1, i64 8
  tail call void @_ZN7testing8internal9MutexBase4LockEv(ptr noundef nonnull align 8 dereferenceable(56) @_ZN7testing8internal18g_linked_ptr_mutexE)
  br label %.noexc

.noexc:                                           ; preds = %6, %.noexc
  %.0.i.i.i.i = phi ptr [ %8, %.noexc ], [ %7, %6 ]
  %8 = load ptr, ptr %.0.i.i.i.i, align 8
  %.not.i.i.i.i = icmp eq ptr %8, %7
  br i1 %.not.i.i.i.i, label %9, label %.noexc, !llvm.loop !5

9:                                                ; preds = %.noexc
  %10 = getelementptr inbounds i8, ptr %0, i64 16
  store ptr %10, ptr %.0.i.i.i.i, align 8
  store ptr %7, ptr %10, align 8
  invoke void @_ZN7testing8internal9MutexBase6UnlockEv(ptr noundef nonnull align 8 dereferenceable(56) @_ZN7testing8internal18g_linked_ptr_mutexE)
          to label %_ZN7testing8internal14ParamGeneratorIiEC2ERKS2_.exit unwind label %11

11:                                               ; preds = %9
  %12 = landingpad { ptr, i32 }
          catch ptr null
  %13 = extractvalue { ptr, i32 } %12, 0
  tail call void @__clang_call_terminate(ptr %13) #28
  unreachable

14:                                               ; preds = %3
  %15 = getelementptr inbounds i8, ptr %0, i64 16
  store ptr %15, ptr %15, align 8
  br label %_ZN7testing8internal14ParamGeneratorIiEC2ERKS2_.exit

_ZN7testing8internal14ParamGeneratorIiEC2ERKS2_.exit: ; preds = %14, %9
  %16 = getelementptr inbounds i8, ptr %0, i64 24
  %.val.i.i.i = load ptr, ptr %2, align 8
  store ptr %.val.i.i.i, ptr %16, align 8
  %.not.i.i.i6 = icmp eq ptr %.val.i.i.i, null
  br i1 %.not.i.i.i6, label %25, label %17

17:                                               ; preds = %_ZN7testing8internal14ParamGeneratorIiEC2ERKS2_.exit
  %18 = getelementptr inbounds i8, ptr %2, i64 8
  invoke void @_ZN7testing8internal9MutexBase4LockEv(ptr noundef nonnull align 8 dereferenceable(56) @_ZN7testing8internal18g_linked_ptr_mutexE)
          to label %.noexc9 unwind label %27

.noexc9:                                          ; preds = %17, %.noexc9
  %.0.i.i.i.i7 = phi ptr [ %19, %.noexc9 ], [ %18, %17 ]
  %19 = load ptr, ptr %.0.i.i.i.i7, align 8
  %.not.i.i.i.i8 = icmp eq ptr %19, %18
  br i1 %.not.i.i.i.i8, label %20, label %.noexc9, !llvm.loop !5

20:                                               ; preds = %.noexc9
  %21 = getelementptr inbounds i8, ptr %0, i64 32
  store ptr %21, ptr %.0.i.i.i.i7, align 8
  store ptr %18, ptr %21, align 8
  invoke void @_ZN7testing8internal9MutexBase6UnlockEv(ptr noundef nonnull align 8 dereferenceable(56) @_ZN7testing8internal18g_linked_ptr_mutexE)
          to label %_ZN7testing8internal14ParamGeneratorIN11opencv_test12_GLOBAL__N_17pnpAlgoEEC2ERKS5_.exit unwind label %22

22:                                               ; preds = %20
  %23 = landingpad { ptr, i32 }
          catch ptr null
  %24 = extractvalue { ptr, i32 } %23, 0
  tail call void @__clang_call_terminate(ptr %24) #28
  unreachable

25:                                               ; preds = %_ZN7testing8internal14ParamGeneratorIiEC2ERKS2_.exit
  %26 = getelementptr inbounds i8, ptr %0, i64 32
  store ptr %26, ptr %26, align 8
  br label %_ZN7testing8internal14ParamGeneratorIN11opencv_test12_GLOBAL__N_17pnpAlgoEEC2ERKS5_.exit

_ZN7testing8internal14ParamGeneratorIN11opencv_test12_GLOBAL__N_17pnpAlgoEEC2ERKS5_.exit: ; preds = %25, %20
  ret void

27:                                               ; preds = %17
  %28 = landingpad { ptr, i32 }
          cleanup
  tail call void @_ZN7testing8internal14ParamGeneratorIiED2Ev(ptr noundef nonnull align 8 dereferenceable(16) %4) #26
  resume { ptr, i32 } %28
}